; ModuleID = '25/586.c'
source_filename = "25/586.c"
target datalayout = "e-m:e-p270:32:32-p271:32:32-p272:64:64-i64:64-f80:128-n8:16:32:64-S128"
target triple = "x86_64-pc-linux-gnu"

@.str = private unnamed_addr constant [3 x i8] c"%d\00", align 1
@.str.1 = private unnamed_addr constant [6 x i8] c"%.0lf\00", align 1

; Function Attrs: noinline nounwind uwtable
define dso_local i32 @main() #0 {
  %1 = alloca i32, align 4
  %2 = alloca i32, align 4
  %3 = alloca i32, align 4
  %4 = alloca i32, align 4
  %5 = alloca double, align 8
  store i32 0, i32* %1, align 4
  store double 1.000000e+00, double* %5, align 8
  %6 = call i32 (i8*, ...) @__isoc99_scanf(i8* getelementptr inbounds ([3 x i8], [3 x i8]* @.str, i64 0, i64 0), i32* %4)
  %7 = load i32, i32* %4, align 4
  %8 = icmp eq i32 %7, 0
  br i1 %8, label %9, label %10

9:                                                ; preds = %0
  store double 1.000000e+00, double* %5, align 8
  br label %10

10:                                               ; preds = %9, %0
  %11 = load i32, i32* %4, align 4
  %12 = icmp ne i32 %11, 0
  br i1 %12, label %13, label %25

13:                                               ; preds = %10
  store i32 0, i32* %3, align 4
  br label %14

14:                                               ; preds = %21, %13
  %15 = load i32, i32* %3, align 4
  %16 = load i32, i32* %4, align 4
  %17 = icmp slt i32 %15, %16
  br i1 %17, label %18, label %24

18:                                               ; preds = %14
  %19 = load double, double* %5, align 8
  %20 = fmul double %19, 2.000000e+00
  store double %20, double* %5, align 8
  br label %21

21:                                               ; preds = %18
  %22 = load i32, i32* %3, align 4
  %23 = add nsw i32 %22, 1
  store i32 %23, i32* %3, align 4
  br label %14

24:                                               ; preds = %14
  br label %25

25:                                               ; preds = %24, %10
  %26 = load double, double* %5, align 8
  %27 = call i32 (i8*, ...) @printf(i8* getelementptr inbounds ([6 x i8], [6 x i8]* @.str.1, i64 0, i64 0), double %26)
  %28 = call i32 (i8*, ...) @__isoc99_scanf(i8* getelementptr inbounds ([3 x i8], [3 x i8]* @.str, i64 0, i64 0), i32* %2)
  ret i32 0
}

declare dso_local i32 @__isoc99_scanf(i8*, ...) #1

declare dso_local i32 @printf(i8*, ...) #1


!llvm.module.flags = !{!0}
!llvm.ident = !{!1}

!0 = !{i32 1, !"wchar_size", i32 4}
!1 = !{!"clang version 10.0.0-4ubuntu1 "}
